; ModuleID = 'source-C-CXX/41/1471.cpp'
source_filename = "source-C-CXX/41/1471.cpp"
target datalayout = "e-m:e-p270:32:32-p271:32:32-p272:64:64-i64:64-f80:128-n8:16:32:64-S128"
target triple = "x86_64-pc-linux-gnu"

%"class.std::ios_base::Init" = type { i8 }
%"class.std::basic_istream" = type { i32 (...)**, i64, %"class.std::basic_ios" }
%"class.std::basic_ios" = type { %"class.std::ios_base", %"class.std::basic_ostream"*, i8, i8, %"class.std::basic_streambuf"*, %"class.std::ctype"*, %"class.std::num_put"*, %"class.std::num_get"* }
%"class.std::ios_base" = type { i32 (...)**, i64, i64, i32, i32, i32, %"struct.std::ios_base::_Callback_list"*, %"struct.std::ios_base::_Words", [8 x %"struct.std::ios_base::_Words"], i32, %"struct.std::ios_base::_Words"*, %"class.std::locale" }
%"struct.std::ios_base::_Callback_list" = type { %"struct.std::ios_base::_Callback_list"*, void (i32, %"class.std::ios_base"*, i32)*, i32, i32 }
%"struct.std::ios_base::_Words" = type { i8*, i64 }
%"class.std::locale" = type { %"class.std::locale::_Impl"* }
%"class.std::locale::_Impl" = type { i32, %"class.std::locale::facet"**, i64, %"class.std::locale::facet"**, i8** }
%"class.std::locale::facet" = type <{ i32 (...)**, i32, [4 x i8] }>
%"class.std::basic_ostream" = type { i32 (...)**, %"class.std::basic_ios" }
%"class.std::basic_streambuf" = type { i32 (...)**, i8*, i8*, i8*, i8*, i8*, i8*, %"class.std::locale" }
%"class.std::ctype" = type <{ %"class.std::locale::facet.base", [4 x i8], %struct.__locale_struct*, i8, [7 x i8], i32*, i32*, i16*, i8, [256 x i8], [256 x i8], i8, [6 x i8] }>
%"class.std::locale::facet.base" = type <{ i32 (...)**, i32 }>
%struct.__locale_struct = type { [13 x %struct.__locale_data*], i16*, i32*, i32*, [13 x i8*] }
%struct.__locale_data = type opaque
%"class.std::num_put" = type { %"class.std::locale::facet.base", [4 x i8] }
%"class.std::num_get" = type { %"class.std::locale::facet.base", [4 x i8] }

@_ZStL8__ioinit = internal global %"class.std::ios_base::Init" zeroinitializer, align 1
@__dso_handle = external hidden global i8
@_ZSt3cin = external global %"class.std::basic_istream", align 8
@_ZSt4cout = external global %"class.std::basic_ostream", align 8
@.str = private unnamed_addr constant [2 x i8] c" \00", align 1
@llvm.global_ctors = appending global [1 x { i32, void ()*, i8* }] [{ i32, void ()*, i8* } { i32 65535, void ()* @_GLOBAL__sub_I_1471.cpp, i8* null }]

declare void @_ZNSt8ios_base4InitC1Ev(%"class.std::ios_base::Init"* nonnull align 1 dereferenceable(1)) unnamed_addr #0

; Function Attrs: nounwind
declare void @_ZNSt8ios_base4InitD1Ev(%"class.std::ios_base::Init"* nonnull align 1 dereferenceable(1)) unnamed_addr #1

; Function Attrs: nofree nounwind
declare i32 @__cxa_atexit(void (i8*)*, i8*, i8*) local_unnamed_addr #2

; Function Attrs: mustprogress norecurse sspstrong uwtable
define dso_local i32 @main() local_unnamed_addr #3 {
  %1 = alloca i32, align 4
  %2 = alloca i32, align 4
  %3 = alloca [100000 x i32], align 16
  %4 = bitcast i32* %1 to i8*
  call void @llvm.lifetime.start.p0i8(i64 4, i8* nonnull %4) #8
  %5 = bitcast i32* %2 to i8*
  call void @llvm.lifetime.start.p0i8(i64 4, i8* nonnull %5) #8
  %6 = bitcast [100000 x i32]* %3 to i8*
  call void @llvm.lifetime.start.p0i8(i64 400000, i8* nonnull %6) #8
  %7 = call nonnull align 8 dereferenceable(16) %"class.std::basic_istream"* @_ZNSirsERi(%"class.std::basic_istream"* nonnull align 8 dereferenceable(16) @_ZSt3cin, i32* nonnull align 4 dereferenceable(4) %1)
  %8 = load i32, i32* %1, align 4, !tbaa !5
  %9 = icmp sgt i32 %8, 0
  br i1 %9, label %10, label %18

10:                                               ; preds = %0, %10
  %11 = phi i64 [ %14, %10 ], [ 0, %0 ]
  %12 = getelementptr inbounds [100000 x i32], [100000 x i32]* %3, i64 0, i64 %11
  %13 = call nonnull align 8 dereferenceable(16) %"class.std::basic_istream"* @_ZNSirsERi(%"class.std::basic_istream"* nonnull align 8 dereferenceable(16) @_ZSt3cin, i32* nonnull align 4 dereferenceable(4) %12)
  %14 = add nuw nsw i64 %11, 1
  %15 = load i32, i32* %1, align 4, !tbaa !5
  %16 = sext i32 %15 to i64
  %17 = icmp slt i64 %14, %16
  br i1 %17, label %10, label %18, !llvm.loop !9

18:                                               ; preds = %10, %0
  %19 = call nonnull align 8 dereferenceable(16) %"class.std::basic_istream"* @_ZNSirsERi(%"class.std::basic_istream"* nonnull align 8 dereferenceable(16) @_ZSt3cin, i32* nonnull align 4 dereferenceable(4) %2)
  %20 = load i32, i32* %1, align 4, !tbaa !5
  %21 = load i32, i32* %2, align 4
  %22 = icmp sgt i32 %20, 0
  br i1 %22, label %23, label %101

23:                                               ; preds = %18
  %24 = zext i32 %20 to i64
  %25 = icmp ult i32 %20, 8
  br i1 %25, label %98, label %26

26:                                               ; preds = %23
  %27 = and i64 %24, 4294967288
  %28 = insertelement <4 x i32> poison, i32 %21, i32 0
  %29 = shufflevector <4 x i32> %28, <4 x i32> poison, <4 x i32> zeroinitializer
  %30 = insertelement <4 x i32> poison, i32 %21, i32 0
  %31 = shufflevector <4 x i32> %30, <4 x i32> poison, <4 x i32> zeroinitializer
  %32 = add nsw i64 %27, -8
  %33 = lshr exact i64 %32, 3
  %34 = add nuw nsw i64 %33, 1
  %35 = and i64 %34, 1
  %36 = icmp eq i64 %32, 0
  br i1 %36, label %72, label %37

37:                                               ; preds = %26
  %38 = and i64 %34, 4611686018427387902
  br label %39

39:                                               ; preds = %39, %37
  %40 = phi i64 [ 0, %37 ], [ %69, %39 ]
  %41 = phi <4 x i32> [ zeroinitializer, %37 ], [ %67, %39 ]
  %42 = phi <4 x i32> [ zeroinitializer, %37 ], [ %68, %39 ]
  %43 = phi i64 [ %38, %37 ], [ %70, %39 ]
  %44 = getelementptr inbounds [100000 x i32], [100000 x i32]* %3, i64 0, i64 %40
  %45 = bitcast i32* %44 to <4 x i32>*
  %46 = load <4 x i32>, <4 x i32>* %45, align 16, !tbaa !5
  %47 = getelementptr inbounds i32, i32* %44, i64 4
  %48 = bitcast i32* %47 to <4 x i32>*
  %49 = load <4 x i32>, <4 x i32>* %48, align 16, !tbaa !5
  %50 = icmp ne <4 x i32> %46, %29
  %51 = icmp ne <4 x i32> %49, %31
  %52 = zext <4 x i1> %50 to <4 x i32>
  %53 = zext <4 x i1> %51 to <4 x i32>
  %54 = add <4 x i32> %41, %52
  %55 = add <4 x i32> %42, %53
  %56 = or i64 %40, 8
  %57 = getelementptr inbounds [100000 x i32], [100000 x i32]* %3, i64 0, i64 %56
  %58 = bitcast i32* %57 to <4 x i32>*
  %59 = load <4 x i32>, <4 x i32>* %58, align 16, !tbaa !5
  %60 = getelementptr inbounds i32, i32* %57, i64 4
  %61 = bitcast i32* %60 to <4 x i32>*
  %62 = load <4 x i32>, <4 x i32>* %61, align 16, !tbaa !5
  %63 = icmp ne <4 x i32> %59, %29
  %64 = icmp ne <4 x i32> %62, %31
  %65 = zext <4 x i1> %63 to <4 x i32>
  %66 = zext <4 x i1> %64 to <4 x i32>
  %67 = add <4 x i32> %54, %65
  %68 = add <4 x i32> %55, %66
  %69 = add nuw i64 %40, 16
  %70 = add i64 %43, -2
  %71 = icmp eq i64 %70, 0
  br i1 %71, label %72, label %39, !llvm.loop !11

72:                                               ; preds = %39, %26
  %73 = phi <4 x i32> [ undef, %26 ], [ %67, %39 ]
  %74 = phi <4 x i32> [ undef, %26 ], [ %68, %39 ]
  %75 = phi i64 [ 0, %26 ], [ %69, %39 ]
  %76 = phi <4 x i32> [ zeroinitializer, %26 ], [ %67, %39 ]
  %77 = phi <4 x i32> [ zeroinitializer, %26 ], [ %68, %39 ]
  %78 = icmp eq i64 %35, 0
  br i1 %78, label %92, label %79

79:                                               ; preds = %72
  %80 = getelementptr inbounds [100000 x i32], [100000 x i32]* %3, i64 0, i64 %75
  %81 = getelementptr inbounds i32, i32* %80, i64 4
  %82 = bitcast i32* %81 to <4 x i32>*
  %83 = load <4 x i32>, <4 x i32>* %82, align 16, !tbaa !5
  %84 = icmp ne <4 x i32> %83, %31
  %85 = zext <4 x i1> %84 to <4 x i32>
  %86 = add <4 x i32> %77, %85
  %87 = bitcast i32* %80 to <4 x i32>*
  %88 = load <4 x i32>, <4 x i32>* %87, align 16, !tbaa !5
  %89 = icmp ne <4 x i32> %88, %29
  %90 = zext <4 x i1> %89 to <4 x i32>
  %91 = add <4 x i32> %76, %90
  br label %92

92:                                               ; preds = %72, %79
  %93 = phi <4 x i32> [ %73, %72 ], [ %91, %79 ]
  %94 = phi <4 x i32> [ %74, %72 ], [ %86, %79 ]
  %95 = add <4 x i32> %94, %93
  %96 = call i32 @llvm.vector.reduce.add.v4i32(<4 x i32> %95)
  %97 = icmp eq i64 %27, %24
  br i1 %97, label %101, label %98

98:                                               ; preds = %23, %92
  %99 = phi i64 [ 0, %23 ], [ %27, %92 ]
  %100 = phi i32 [ 0, %23 ], [ %96, %92 ]
  br label %103

101:                                              ; preds = %103, %92, %18
  %102 = phi i32 [ 0, %18 ], [ %96, %92 ], [ %110, %103 ]
  br label %113

103:                                              ; preds = %98, %103
  %104 = phi i64 [ %111, %103 ], [ %99, %98 ]
  %105 = phi i32 [ %110, %103 ], [ %100, %98 ]
  %106 = getelementptr inbounds [100000 x i32], [100000 x i32]* %3, i64 0, i64 %104
  %107 = load i32, i32* %106, align 4, !tbaa !5
  %108 = icmp ne i32 %107, %21
  %109 = zext i1 %108 to i32
  %110 = add nuw nsw i32 %105, %109
  %111 = add nuw nsw i64 %104, 1
  %112 = icmp eq i64 %111, %24
  br i1 %112, label %101, label %103, !llvm.loop !13

113:                                              ; preds = %162, %101
  %114 = phi i32 [ %21, %101 ], [ %164, %162 ]
  %115 = phi i64 [ 0, %101 ], [ %163, %162 ]
  %116 = phi i32 [ 0, %101 ], [ %157, %162 ]
  %117 = getelementptr inbounds [100000 x i32], [100000 x i32]* %3, i64 0, i64 %115
  %118 = load i32, i32* %117, align 4, !tbaa !5
  %119 = icmp eq i32 %118, %114
  br i1 %119, label %156, label %120

120:                                              ; preds = %113
  %121 = add nsw i32 %116, 1
  %122 = icmp slt i32 %121, %102
  %123 = call nonnull align 8 dereferenceable(8) %"class.std::basic_ostream"* @_ZNSolsEi(%"class.std::basic_ostream"* nonnull align 8 dereferenceable(8) @_ZSt4cout, i32 %118)
  br i1 %122, label %124, label %126

124:                                              ; preds = %120
  %125 = call nonnull align 8 dereferenceable(8) %"class.std::basic_ostream"* @_ZSt16__ostream_insertIcSt11char_traitsIcEERSt13basic_ostreamIT_T0_ES6_PKS3_l(%"class.std::basic_ostream"* nonnull align 8 dereferenceable(8) %123, i8* nonnull getelementptr inbounds ([2 x i8], [2 x i8]* @.str, i64 0, i64 0), i64 1)
  br label %156

126:                                              ; preds = %120
  %127 = bitcast %"class.std::basic_ostream"* %123 to i8**
  %128 = load i8*, i8** %127, align 8, !tbaa !15
  %129 = getelementptr i8, i8* %128, i64 -24
  %130 = bitcast i8* %129 to i64*
  %131 = load i64, i64* %130, align 8
  %132 = bitcast %"class.std::basic_ostream"* %123 to i8*
  %133 = add nsw i64 %131, 240
  %134 = getelementptr inbounds i8, i8* %132, i64 %133
  %135 = bitcast i8* %134 to %"class.std::ctype"**
  %136 = load %"class.std::ctype"*, %"class.std::ctype"** %135, align 8, !tbaa !17
  %137 = icmp eq %"class.std::ctype"* %136, null
  br i1 %137, label %138, label %139

138:                                              ; preds = %126
  call void @_ZSt16__throw_bad_castv() #9
  unreachable

139:                                              ; preds = %126
  %140 = getelementptr inbounds %"class.std::ctype", %"class.std::ctype"* %136, i64 0, i32 8
  %141 = load i8, i8* %140, align 8, !tbaa !21
  %142 = icmp eq i8 %141, 0
  br i1 %142, label %146, label %143

143:                                              ; preds = %139
  %144 = getelementptr inbounds %"class.std::ctype", %"class.std::ctype"* %136, i64 0, i32 9, i64 10
  %145 = load i8, i8* %144, align 1, !tbaa !23
  br label %152

146:                                              ; preds = %139
  call void @_ZNKSt5ctypeIcE13_M_widen_initEv(%"class.std::ctype"* nonnull align 8 dereferenceable(570) %136)
  %147 = bitcast %"class.std::ctype"* %136 to i8 (%"class.std::ctype"*, i8)***
  %148 = load i8 (%"class.std::ctype"*, i8)**, i8 (%"class.std::ctype"*, i8)*** %147, align 8, !tbaa !15
  %149 = getelementptr inbounds i8 (%"class.std::ctype"*, i8)*, i8 (%"class.std::ctype"*, i8)** %148, i64 6
  %150 = load i8 (%"class.std::ctype"*, i8)*, i8 (%"class.std::ctype"*, i8)** %149, align 8
  %151 = call signext i8 %150(%"class.std::ctype"* nonnull align 8 dereferenceable(570) %136, i8 signext 10)
  br label %152

152:                                              ; preds = %143, %146
  %153 = phi i8 [ %145, %143 ], [ %151, %146 ]
  %154 = call nonnull align 8 dereferenceable(8) %"class.std::basic_ostream"* @_ZNSo3putEc(%"class.std::basic_ostream"* nonnull align 8 dereferenceable(8) %123, i8 signext %153)
  %155 = call nonnull align 8 dereferenceable(8) %"class.std::basic_ostream"* @_ZNSo5flushEv(%"class.std::basic_ostream"* nonnull align 8 dereferenceable(8) %154)
  br label %156

156:                                              ; preds = %124, %152, %113
  %157 = phi i32 [ %121, %124 ], [ %121, %152 ], [ %116, %113 ]
  %158 = load i32, i32* %1, align 4, !tbaa !5
  %159 = add nsw i32 %158, -1
  %160 = sext i32 %159 to i64
  %161 = icmp slt i64 %115, %160
  br i1 %161, label %162, label %165, !llvm.loop !24

162:                                              ; preds = %156
  %163 = add nuw nsw i64 %115, 1
  %164 = load i32, i32* %2, align 4, !tbaa !5
  br label %113

165:                                              ; preds = %156
  call void @llvm.lifetime.end.p0i8(i64 400000, i8* nonnull %6) #8
  call void @llvm.lifetime.end.p0i8(i64 4, i8* nonnull %5) #8
  call void @llvm.lifetime.end.p0i8(i64 4, i8* nonnull %4) #8
  ret i32 0
}

; Function Attrs: argmemonly mustprogress nofree nosync nounwind willreturn
declare void @llvm.lifetime.start.p0i8(i64 immarg, i8* nocapture) #4

declare nonnull align 8 dereferenceable(16) %"class.std::basic_istream"* @_ZNSirsERi(%"class.std::basic_istream"* nonnull align 8 dereferenceable(16), i32* nonnull align 4 dereferenceable(4)) local_unnamed_addr #0

declare nonnull align 8 dereferenceable(8) %"class.std::basic_ostream"* @_ZNSolsEi(%"class.std::basic_ostream"* nonnull align 8 dereferenceable(8), i32) local_unnamed_addr #0

; Function Attrs: argmemonly mustprogress nofree nosync nounwind willreturn
declare void @llvm.lifetime.end.p0i8(i64 immarg, i8* nocapture) #4

declare nonnull align 8 dereferenceable(8) %"class.std::basic_ostream"* @_ZSt16__ostream_insertIcSt11char_traitsIcEERSt13basic_ostreamIT_T0_ES6_PKS3_l(%"class.std::basic_ostream"* nonnull align 8 dereferenceable(8), i8*, i64) local_unnamed_addr #0

declare nonnull align 8 dereferenceable(8) %"class.std::basic_ostream"* @_ZNSo3putEc(%"class.std::basic_ostream"* nonnull align 8 dereferenceable(8), i8 signext) local_unnamed_addr #0

declare nonnull align 8 dereferenceable(8) %"class.std::basic_ostream"* @_ZNSo5flushEv(%"class.std::basic_ostream"* nonnull align 8 dereferenceable(8)) local_unnamed_addr #0

; Function Attrs: noreturn
declare void @_ZSt16__throw_bad_castv() local_unnamed_addr #5

declare void @_ZNKSt5ctypeIcE13_M_widen_initEv(%"class.std::ctype"* nonnull align 8 dereferenceable(570)) local_unnamed_addr #0

; Function Attrs: sspstrong uwtable
define internal void @_GLOBAL__sub_I_1471.cpp() #6 section ".text.startup" {
  tail call void @_ZNSt8ios_base4InitC1Ev(%"class.std::ios_base::Init"* nonnull align 1 dereferenceable(1) @_ZStL8__ioinit)
  %1 = tail call i32 @__cxa_atexit(void (i8*)* bitcast (void (%"class.std::ios_base::Init"*)* @_ZNSt8ios_base4InitD1Ev to void (i8*)*), i8* getelementptr inbounds (%"class.std::ios_base::Init", %"class.std::ios_base::Init"* @_ZStL8__ioinit, i64 0, i32 0), i8* nonnull @__dso_handle) #8
  ret void
}

; Function Attrs: nofree nosync nounwind readnone willreturn
declare i32 @llvm.vector.reduce.add.v4i32(<4 x i32>) #7


!llvm.module.flags = !{!0, !1, !2, !3}
!llvm.ident = !{!4}

!0 = !{i32 1, !"wchar_size", i32 4}
!1 = !{i32 7, !"PIC Level", i32 2}
!2 = !{i32 7, !"PIE Level", i32 2}
!3 = !{i32 7, !"uwtable", i32 1}
!4 = !{!"clang version 13.0.0"}
!5 = !{!6, !6, i64 0}
!6 = !{!"int", !7, i64 0}
!7 = !{!"omnipotent char", !8, i64 0}
!8 = !{!"Simple C++ TBAA"}
!9 = distinct !{!9, !10}
!10 = !{!"llvm.loop.mustprogress"}
!11 = distinct !{!11, !10, !12}
!12 = !{!"llvm.loop.isvectorized", i32 1}
!13 = distinct !{!13, !10, !14, !12}
!14 = !{!"llvm.loop.unroll.runtime.disable"}
!15 = !{!16, !16, i64 0}
!16 = !{!"vtable pointer", !8, i64 0}
!17 = !{!18, !19, i64 240}
!18 = !{!"_ZTSSt9basic_iosIcSt11char_traitsIcEE", !19, i64 216, !7, i64 224, !20, i64 225, !19, i64 232, !19, i64 240, !19, i64 248, !19, i64 256}
!19 = !{!"any pointer", !7, i64 0}
!20 = !{!"bool", !7, i64 0}
!21 = !{!22, !7, i64 56}
!22 = !{!"_ZTSSt5ctypeIcE", !19, i64 16, !20, i64 24, !19, i64 32, !19, i64 40, !19, i64 48, !7, i64 56, !7, i64 57, !7, i64 313, !7, i64 569}
!23 = !{!7, !7, i64 0}
!24 = distinct !{!24, !10}
